; Function Attrs: nounwind uwtable
define dso_local void @fed_mgr_remove_fed_job_info(i32 noundef %0) local_unnamed_addr #0 {
  %2 = alloca i32, align 4
  store i32 %0, ptr %2, align 4
  %3 = tail call i32 @pthread_mutex_lock(ptr noundef nonnull @fed_job_list_mutex) #16
  %.not = icmp eq i32 %3, 0
  br i1 %.not, label %6, label %4

4:                                                ; preds = %1
  %5 = tail call ptr @__errno_location() #17
  store i32 %3, ptr %5, align 4
  tail call void (ptr, ...) @fatal_abort(ptr noundef nonnull @.str.1, ptr noundef nonnull @__func__.fed_mgr_remove_fed_job_info) #18
  unreachable

6:                                                ; preds = %1
  %7 = load ptr, ptr @fed_job_list, align 8
  %.not6 = icmp eq ptr %7, null
  br i1 %.not6, label %10, label %8

8:                                                ; preds = %6
  %9 = call i32 @list_delete_all(ptr noundef nonnull %7, ptr noundef nonnull @_delete_fed_job_info_by_id, ptr noundef nonnull %2) #16
  br label %10

10:                                               ; preds = %6, %8
  %11 = call i32 @pthread_mutex_unlock(ptr noundef nonnull @fed_job_list_mutex) #16
  %.not7 = icmp eq i32 %11, 0
  br i1 %.not7, label %14, label %12

12:                                               ; preds = %10
  %13 = tail call ptr @__errno_location() #17
  store i32 %11, ptr %13, align 4
  call void (ptr, ...) @fatal_abort(ptr noundef nonnull @.str.2, ptr noundef nonnull @__func__.fed_mgr_remove_fed_job_info) #18
  unreachable

14:                                               ; preds = %10
  ret void
}